target datalayout = "e-m:e-p270:32:32-p271:32:32-p272:64:64-i64:64-i128:128-f80:128-n8:16:32:64-S128"
target triple = "x86_64-pc-linux-gnu"

%struct.mbedtls_psa_pake_operation_t = type { i32, ptr, i64, i32, [336 x i8], i64, i64, %union.anon }
%union.anon = type { %struct.mbedtls_ecjpake_context }
%struct.mbedtls_ecjpake_context = type { i32, %struct.mbedtls_ecp_group, i32, i32, %struct.mbedtls_ecp_point, %struct.mbedtls_ecp_point, %struct.mbedtls_ecp_point, %struct.mbedtls_ecp_point, %struct.mbedtls_ecp_point, %struct.mbedtls_mpi, %struct.mbedtls_mpi, %struct.mbedtls_mpi }
%struct.mbedtls_ecp_group = type { i32, %struct.mbedtls_mpi, %struct.mbedtls_mpi, %struct.mbedtls_mpi, %struct.mbedtls_ecp_point, %struct.mbedtls_mpi, i64, i64, i32, ptr, ptr, ptr, ptr, ptr, i64 }
%struct.mbedtls_ecp_point = type { %struct.mbedtls_mpi, %struct.mbedtls_mpi, %struct.mbedtls_mpi }
%struct.mbedtls_mpi = type { ptr, i16, i16 }

; Function Attrs: nounwind uwtable
define internal i32 @mbedtls_ecjpake_to_psa_error(i32 noundef %0) #0 {
  %2 = alloca i32, align 4
  %3 = alloca i32, align 4
  store i32 %0, ptr %3, align 4, !tbaa !9
  %4 = load i32, ptr %3, align 4, !tbaa !9
  switch i32 %4, label %9 [
    i32 -4, label %5
    i32 -20352, label %5
    i32 -19584, label %5
    i32 -19968, label %5
    i32 -8, label %6
    i32 -20224, label %6
    i32 -20608, label %7
    i32 -110, label %8
  ]

5:                                                ; preds = %1, %1, %1, %1
  store i32 -153, ptr %2, align 4
  br label %10

6:                                                ; preds = %1, %1
  store i32 -138, ptr %2, align 4
  br label %10

7:                                                ; preds = %1
  store i32 -134, ptr %2, align 4
  br label %10

8:                                                ; preds = %1
  store i32 -151, ptr %2, align 4
  br label %10

9:                                                ; preds = %1
  store i32 -132, ptr %2, align 4
  br label %10

10:                                               ; preds = %9, %8, %7, %6, %5
  %11 = load i32, ptr %2, align 4
  ret i32 %11
}

; Function Attrs: nounwind uwtable
define internal i32 @mbedtls_psa_pake_output_internal(ptr noundef %0, i32 noundef %1, ptr noundef %2, i64 noundef %3, ptr noundef %4) #0 {
  %6 = alloca i32, align 4
  %7 = alloca ptr, align 8
  %8 = alloca i32, align 4
  %9 = alloca ptr, align 8
  %10 = alloca i64, align 8
  %11 = alloca ptr, align 8
  %12 = alloca i32, align 4
  %13 = alloca i64, align 8
  %14 = alloca i32, align 4
  store ptr %0, ptr %7, align 8, !tbaa !3
  store i32 %1, ptr %8, align 4, !tbaa !9
  store ptr %2, ptr %9, align 8, !tbaa !13
  store i64 %3, ptr %10, align 8, !tbaa !11
  store ptr %4, ptr %11, align 8, !tbaa !29
  call void @llvm.lifetime.start.p0(i64 4, ptr %12) #9
  store i32 -110, ptr %12, align 4, !tbaa !9
  call void @llvm.lifetime.start.p0(i64 8, ptr %13) #9
  %15 = load ptr, ptr %7, align 8, !tbaa !3
  %16 = getelementptr inbounds nuw %struct.mbedtls_psa_pake_operation_t, ptr %15, i32 0, i32 0
  %17 = load i32, ptr %16, align 8, !tbaa !21
  %18 = icmp eq i32 %17, 167772416
  br i1 %18, label %19, label %132

19:                                               ; preds = %5
  %20 = load i32, ptr %8, align 4, !tbaa !9
  %21 = icmp eq i32 %20, 1
  br i1 %21, label %22, label %39

22:                                               ; preds = %19
  %23 = load ptr, ptr %7, align 8, !tbaa !3
  %24 = getelementptr inbounds nuw %struct.mbedtls_psa_pake_operation_t, ptr %23, i32 0, i32 7
  %25 = load ptr, ptr %7, align 8, !tbaa !3
  %26 = getelementptr inbounds nuw %struct.mbedtls_psa_pake_operation_t, ptr %25, i32 0, i32 4
  %27 = getelementptr inbounds [336 x i8], ptr %26, i64 0, i64 0
  %28 = load ptr, ptr %7, align 8, !tbaa !3
  %29 = getelementptr inbounds nuw %struct.mbedtls_psa_pake_operation_t, ptr %28, i32 0, i32 5
  %30 = call i32 @mbedtls_ecjpake_write_round_one(ptr noundef %24, ptr noundef %27, i64 noundef 336, ptr noundef %29, ptr noundef @mbedtls_psa_get_random, ptr noundef null)
  store i32 %30, ptr %12, align 4, !tbaa !9
  %31 = load i32, ptr %12, align 4, !tbaa !9
  %32 = icmp ne i32 %31, 0
  br i1 %32, label %33, label %36

33:                                               ; preds = %22
  %34 = load i32, ptr %12, align 4, !tbaa !9
  %35 = call i32 @mbedtls_ecjpake_to_psa_error(i32 noundef %34)
  store i32 %35, ptr %6, align 4
  store i32 1, ptr %14, align 4
  br label %133

36:                                               ; preds = %22
  %37 = load ptr, ptr %7, align 8, !tbaa !3
  %38 = getelementptr inbounds nuw %struct.mbedtls_psa_pake_operation_t, ptr %37, i32 0, i32 6
  store i64 0, ptr %38, align 8, !tbaa !28
  br label %60

39:                                               ; preds = %19
  %40 = load i32, ptr %8, align 4, !tbaa !9
  %41 = icmp eq i32 %40, 7
  br i1 %41, label %42, label %59

42:                                               ; preds = %39
  %43 = load ptr, ptr %7, align 8, !tbaa !3
  %44 = getelementptr inbounds nuw %struct.mbedtls_psa_pake_operation_t, ptr %43, i32 0, i32 7
  %45 = load ptr, ptr %7, align 8, !tbaa !3
  %46 = getelementptr inbounds nuw %struct.mbedtls_psa_pake_operation_t, ptr %45, i32 0, i32 4
  %47 = getelementptr inbounds [336 x i8], ptr %46, i64 0, i64 0
  %48 = load ptr, ptr %7, align 8, !tbaa !3
  %49 = getelementptr inbounds nuw %struct.mbedtls_psa_pake_operation_t, ptr %48, i32 0, i32 5
  %50 = call i32 @mbedtls_ecjpake_write_round_two(ptr noundef %44, ptr noundef %47, i64 noundef 336, ptr noundef %49, ptr noundef @mbedtls_psa_get_random, ptr noundef null)
  store i32 %50, ptr %12, align 4, !tbaa !9
  %51 = load i32, ptr %12, align 4, !tbaa !9
  %52 = icmp ne i32 %51, 0
  br i1 %52, label %53, label %56

53:                                               ; preds = %42
  %54 = load i32, ptr %12, align 4, !tbaa !9
  %55 = call i32 @mbedtls_ecjpake_to_psa_error(i32 noundef %54)
  store i32 %55, ptr %6, align 4
  store i32 1, ptr %14, align 4
  br label %133

56:                                               ; preds = %42
  %57 = load ptr, ptr %7, align 8, !tbaa !3
  %58 = getelementptr inbounds nuw %struct.mbedtls_psa_pake_operation_t, ptr %57, i32 0, i32 6
  store i64 0, ptr %58, align 8, !tbaa !28
  br label %59

59:                                               ; preds = %56, %39
  br label %60

60:                                               ; preds = %59, %36
  %61 = load i32, ptr %8, align 4, !tbaa !9
  %62 = icmp eq i32 %61, 7
  br i1 %62, label %63, label %73

63:                                               ; preds = %60
  %64 = load ptr, ptr %7, align 8, !tbaa !3
  %65 = getelementptr inbounds nuw %struct.mbedtls_psa_pake_operation_t, ptr %64, i32 0, i32 3
  %66 = load i32, ptr %65, align 8, !tbaa !26
  %67 = icmp eq i32 %66, 1
  br i1 %67, label %68, label %73

68:                                               ; preds = %63
  %69 = load ptr, ptr %7, align 8, !tbaa !3
  %70 = getelementptr inbounds nuw %struct.mbedtls_psa_pake_operation_t, ptr %69, i32 0, i32 6
  %71 = load i64, ptr %70, align 8, !tbaa !28
  %72 = add i64 %71, 3
  store i64 %72, ptr %70, align 8, !tbaa !28
  br label %73

73:                                               ; preds = %68, %63, %60
  %74 = load ptr, ptr %7, align 8, !tbaa !3
  %75 = getelementptr inbounds nuw %struct.mbedtls_psa_pake_operation_t, ptr %74, i32 0, i32 4
  %76 = load ptr, ptr %7, align 8, !tbaa !3
  %77 = getelementptr inbounds nuw %struct.mbedtls_psa_pake_operation_t, ptr %76, i32 0, i32 6
  %78 = load i64, ptr %77, align 8, !tbaa !28
  %79 = getelementptr inbounds nuw [336 x i8], ptr %75, i64 0, i64 %78
  %80 = load i8, ptr %79, align 1, !tbaa !31
  %81 = zext i8 %80 to i64
  store i64 %81, ptr %13, align 8, !tbaa !11
  %82 = load ptr, ptr %7, align 8, !tbaa !3
  %83 = getelementptr inbounds nuw %struct.mbedtls_psa_pake_operation_t, ptr %82, i32 0, i32 6
  %84 = load i64, ptr %83, align 8, !tbaa !28
  %85 = add i64 %84, 1
  store i64 %85, ptr %83, align 8, !tbaa !28
  %86 = load ptr, ptr %7, align 8, !tbaa !3
  %87 = getelementptr inbounds nuw %struct.mbedtls_psa_pake_operation_t, ptr %86, i32 0, i32 6
  %88 = load i64, ptr %87, align 8, !tbaa !28
  %89 = load i64, ptr %13, align 8, !tbaa !11
  %90 = add i64 %88, %89
  %91 = load ptr, ptr %7, align 8, !tbaa !3
  %92 = getelementptr inbounds nuw %struct.mbedtls_psa_pake_operation_t, ptr %91, i32 0, i32 5
  %93 = load i64, ptr %92, align 8, !tbaa !27
  %94 = icmp ugt i64 %90, %93
  br i1 %94, label %95, label %96

95:                                               ; preds = %73
  store i32 -152, ptr %6, align 4
  store i32 1, ptr %14, align 4
  br label %133

96:                                               ; preds = %73
  %97 = load i64, ptr %10, align 8, !tbaa !11
  %98 = load i64, ptr %13, align 8, !tbaa !11
  %99 = icmp ult i64 %97, %98
  br i1 %99, label %100, label %101

100:                                              ; preds = %96
  store i32 -138, ptr %6, align 4
  store i32 1, ptr %14, align 4
  br label %133

101:                                              ; preds = %96
  %102 = load ptr, ptr %9, align 8, !tbaa !13
  %103 = load ptr, ptr %7, align 8, !tbaa !3
  %104 = getelementptr inbounds nuw %struct.mbedtls_psa_pake_operation_t, ptr %103, i32 0, i32 4
  %105 = getelementptr inbounds [336 x i8], ptr %104, i64 0, i64 0
  %106 = load ptr, ptr %7, align 8, !tbaa !3
  %107 = getelementptr inbounds nuw %struct.mbedtls_psa_pake_operation_t, ptr %106, i32 0, i32 6
  %108 = load i64, ptr %107, align 8, !tbaa !28
  %109 = getelementptr inbounds nuw i8, ptr %105, i64 %108
  %110 = load i64, ptr %13, align 8, !tbaa !11
  call void @llvm.memcpy.p0.p0.i64(ptr align 1 %102, ptr align 1 %109, i64 %110, i1 false)
  %111 = load i64, ptr %13, align 8, !tbaa !11
  %112 = load ptr, ptr %11, align 8, !tbaa !29
  store i64 %111, ptr %112, align 8, !tbaa !11
  %113 = load i64, ptr %13, align 8, !tbaa !11
  %114 = load ptr, ptr %7, align 8, !tbaa !3
  %115 = getelementptr inbounds nuw %struct.mbedtls_psa_pake_operation_t, ptr %114, i32 0, i32 6
  %116 = load i64, ptr %115, align 8, !tbaa !28
  %117 = add i64 %116, %113
  store i64 %117, ptr %115, align 8, !tbaa !28
  %118 = load i32, ptr %8, align 4, !tbaa !9
  %119 = icmp eq i32 %118, 6
  br i1 %119, label %123, label %120

120:                                              ; preds = %101
  %121 = load i32, ptr %8, align 4, !tbaa !9
  %122 = icmp eq i32 %121, 9
  br i1 %122, label %123, label %131

123:                                              ; preds = %120, %101
  %124 = load ptr, ptr %7, align 8, !tbaa !3
  %125 = getelementptr inbounds nuw %struct.mbedtls_psa_pake_operation_t, ptr %124, i32 0, i32 4
  %126 = getelementptr inbounds [336 x i8], ptr %125, i64 0, i64 0
  call void @mbedtls_platform_zeroize(ptr noundef %126, i64 noundef 336)
  %127 = load ptr, ptr %7, align 8, !tbaa !3
  %128 = getelementptr inbounds nuw %struct.mbedtls_psa_pake_operation_t, ptr %127, i32 0, i32 5
  store i64 0, ptr %128, align 8, !tbaa !27
  %129 = load ptr, ptr %7, align 8, !tbaa !3
  %130 = getelementptr inbounds nuw %struct.mbedtls_psa_pake_operation_t, ptr %129, i32 0, i32 6
  store i64 0, ptr %130, align 8, !tbaa !28
  br label %131

131:                                              ; preds = %123, %120
  store i32 0, ptr %6, align 4
  store i32 1, ptr %14, align 4
  br label %133

132:                                              ; preds = %5
  store i32 -134, ptr %6, align 4
  store i32 1, ptr %14, align 4
  br label %133

133:                                              ; preds = %132, %131, %100, %95, %53, %33
  call void @llvm.lifetime.end.p0(i64 8, ptr %13) #9
  call void @llvm.lifetime.end.p0(i64 4, ptr %12) #9
  %134 = load i32, ptr %6, align 4
  ret i32 %134
}

; Function Attrs: nounwind uwtable
define hidden i32 @mbedtls_psa_pake_output(ptr noundef %0, i32 noundef %1, ptr noundef %2, i64 noundef %3, ptr noundef %4) #0 {
  %6 = alloca ptr, align 8
  %7 = alloca i32, align 4
  %8 = alloca ptr, align 8
  %9 = alloca i64, align 8
  %10 = alloca ptr, align 8
  %11 = alloca i32, align 4
  store ptr %0, ptr %6, align 8, !tbaa !3
  store i32 %1, ptr %7, align 4, !tbaa !9
  store ptr %2, ptr %8, align 8, !tbaa !13
  store i64 %3, ptr %9, align 8, !tbaa !11
  store ptr %4, ptr %10, align 8, !tbaa !29
  call void @llvm.lifetime.start.p0(i64 4, ptr %11) #9
  %12 = load ptr, ptr %6, align 8, !tbaa !3
  %13 = load i32, ptr %7, align 4, !tbaa !9
  %14 = load ptr, ptr %8, align 8, !tbaa !13
  %15 = load i64, ptr %9, align 8, !tbaa !11
  %16 = load ptr, ptr %10, align 8, !tbaa !29
  %17 = call i32 @mbedtls_psa_pake_output_internal(ptr noundef %12, i32 noundef %13, ptr noundef %14, i64 noundef %15, ptr noundef %16)
  store i32 %17, ptr %11, align 4, !tbaa !9
  %18 = load i32, ptr %11, align 4, !tbaa !9
  call void @llvm.lifetime.end.p0(i64 4, ptr %11) #9
  ret i32 %18
}