; Function Attrs: nounwind uwtable
define hidden range(i32 -153, 1) i32 @mbedtls_psa_pake_output(ptr noundef %0, i32 noundef %1, ptr noundef writeonly captures(none) %2, i64 noundef %3, ptr noundef writeonly captures(none) %4) local_unnamed_addr #0 {
  %6 = load i32, ptr %0, align 8, !tbaa !16
  %7 = icmp eq i32 %6, 167772416
  br i1 %7, label %8, label %mbedtls_psa_pake_output_internal.exit

8:                                                ; preds = %5
  switch i32 %1, label %._crit_edge.i [
    i32 1, label %9
    i32 7, label %18
  ]

._crit_edge.i:                                    ; preds = %8
  %.phi.trans.insert.i = getelementptr inbounds nuw i8, ptr %0, i64 376
  %.pre.i = load i64, ptr %.phi.trans.insert.i, align 8, !tbaa !19
  br label %34

9:                                                ; preds = %8
  %10 = getelementptr inbounds nuw i8, ptr %0, i64 384
  %11 = getelementptr inbounds nuw i8, ptr %0, i64 28
  %12 = getelementptr inbounds nuw i8, ptr %0, i64 368
  %13 = tail call i32 @mbedtls_ecjpake_write_round_one(ptr noundef nonnull %10, ptr noundef nonnull %11, i64 noundef 336, ptr noundef nonnull %12, ptr noundef nonnull @mbedtls_psa_get_random, ptr noundef null) #8
  switch i32 %13, label %17 [
    i32 0, label %27
    i32 -4, label %mbedtls_psa_pake_output_internal.exit
    i32 -20352, label %mbedtls_psa_pake_output_internal.exit
    i32 -19584, label %mbedtls_psa_pake_output_internal.exit
    i32 -19968, label %mbedtls_psa_pake_output_internal.exit
    i32 -8, label %14
    i32 -20224, label %14
    i32 -20608, label %15
    i32 -110, label %16
  ]

14:                                               ; preds = %9, %9
  br label %mbedtls_psa_pake_output_internal.exit

15:                                               ; preds = %9
  br label %mbedtls_psa_pake_output_internal.exit

16:                                               ; preds = %9
  br label %mbedtls_psa_pake_output_internal.exit

17:                                               ; preds = %9
  br label %mbedtls_psa_pake_output_internal.exit

18:                                               ; preds = %8
  %19 = getelementptr inbounds nuw i8, ptr %0, i64 384
  %20 = getelementptr inbounds nuw i8, ptr %0, i64 28
  %21 = getelementptr inbounds nuw i8, ptr %0, i64 368
  %22 = tail call i32 @mbedtls_ecjpake_write_round_two(ptr noundef nonnull %19, ptr noundef nonnull %20, i64 noundef 336, ptr noundef nonnull %21, ptr noundef nonnull @mbedtls_psa_get_random, ptr noundef null) #8
  switch i32 %22, label %26 [
    i32 0, label %29
    i32 -4, label %mbedtls_psa_pake_output_internal.exit
    i32 -20352, label %mbedtls_psa_pake_output_internal.exit
    i32 -19584, label %mbedtls_psa_pake_output_internal.exit
    i32 -19968, label %mbedtls_psa_pake_output_internal.exit
    i32 -8, label %23
    i32 -20224, label %23
    i32 -20608, label %24
    i32 -110, label %25
  ]

23:                                               ; preds = %18, %18
  br label %mbedtls_psa_pake_output_internal.exit

24:                                               ; preds = %18
  br label %mbedtls_psa_pake_output_internal.exit

25:                                               ; preds = %18
  br label %mbedtls_psa_pake_output_internal.exit

26:                                               ; preds = %18
  br label %mbedtls_psa_pake_output_internal.exit

27:                                               ; preds = %9
  %28 = getelementptr inbounds nuw i8, ptr %0, i64 376
  store i64 0, ptr %28, align 8, !tbaa !19
  br label %34

29:                                               ; preds = %18
  %30 = getelementptr inbounds nuw i8, ptr %0, i64 376
  %31 = getelementptr inbounds nuw i8, ptr %0, i64 24
  %32 = load i32, ptr %31, align 8, !tbaa !18
  %33 = icmp eq i32 %32, 1
  %spec.store.select.i = select i1 %33, i64 3, i64 0
  store i64 %spec.store.select.i, ptr %30, align 8
  br label %34

34:                                               ; preds = %29, %27, %._crit_edge.i
  %35 = phi i64 [ %.pre.i, %._crit_edge.i ], [ 0, %27 ], [ %spec.store.select.i, %29 ]
  %36 = getelementptr inbounds nuw i8, ptr %0, i64 28
  %37 = getelementptr inbounds nuw i8, ptr %0, i64 376
  %38 = getelementptr inbounds nuw [336 x i8], ptr %36, i64 0, i64 %35
  %39 = load i8, ptr %38, align 1, !tbaa !20
  %40 = zext i8 %39 to i64
  %41 = add i64 %35, 1
  store i64 %41, ptr %37, align 8, !tbaa !19
  %42 = add i64 %41, %40
  %43 = getelementptr inbounds nuw i8, ptr %0, i64 368
  %44 = load i64, ptr %43, align 8, !tbaa !21
  %45 = icmp ugt i64 %42, %44
  br i1 %45, label %mbedtls_psa_pake_output_internal.exit, label %46

46:                                               ; preds = %34
  %47 = icmp ult i64 %3, %40
  br i1 %47, label %mbedtls_psa_pake_output_internal.exit, label %48

48:                                               ; preds = %46
  %49 = getelementptr inbounds nuw i8, ptr %36, i64 %41
  tail call void @llvm.memcpy.p0.p0.i64(ptr align 1 %2, ptr nonnull align 1 %49, i64 %40, i1 false)
  store i64 %40, ptr %4, align 8, !tbaa !3
  %50 = load i64, ptr %37, align 8, !tbaa !19
  %51 = add i64 %50, %40
  store i64 %51, ptr %37, align 8, !tbaa !19
  switch i32 %1, label %mbedtls_psa_pake_output_internal.exit [
    i32 9, label %52
    i32 6, label %52
  ]

52:                                               ; preds = %48, %48
  tail call void @mbedtls_platform_zeroize(ptr noundef nonnull %36, i64 noundef 336) #8
  tail call void @llvm.memset.p0.i64(ptr noundef nonnull align 8 dereferenceable(16) %43, i8 0, i64 16, i1 false)
  br label %mbedtls_psa_pake_output_internal.exit

mbedtls_psa_pake_output_internal.exit:            ; preds = %5, %9, %9, %9, %9, %14, %15, %16, %17, %18, %18, %18, %18, %23, %24, %25, %26, %34, %46, %48, %52
  %.0.i = phi i32 [ -152, %34 ], [ -138, %46 ], [ 0, %48 ], [ 0, %52 ], [ -134, %5 ], [ -132, %17 ], [ -151, %16 ], [ -134, %15 ], [ -138, %14 ], [ -132, %26 ], [ -151, %25 ], [ -134, %24 ], [ -138, %23 ], [ -153, %9 ], [ -153, %9 ], [ -153, %9 ], [ -153, %9 ], [ -153, %18 ], [ -153, %18 ], [ -153, %18 ], [ -153, %18 ]
  ret i32 %.0.i
}